; ModuleID = '58/937.c'
source_filename = "58/937.c"
target datalayout = "e-m:e-p270:32:32-p271:32:32-p272:64:64-i64:64-f80:128-n8:16:32:64-S128"
target triple = "x86_64-pc-linux-gnu"

@.str = private unnamed_addr constant [4 x i8] c"%d\0A\00", align 1

; Function Attrs: noinline nounwind uwtable
define dso_local i32 @main() #0 {
  %1 = alloca i32, align 4
  %2 = alloca i32, align 4
  %3 = alloca i32, align 4
  %4 = alloca [1000 x i32], align 16
  %5 = alloca i32, align 4
  %6 = alloca i32, align 4
  %7 = alloca [1 x i8], align 1
  %8 = alloca [80 x i8], align 16
  %9 = alloca i8*, align 8
  store i32 0, i32* %1, align 4
  store i32 0, i32* %2, align 4
  %10 = getelementptr inbounds [1 x i8], [1 x i8]* %7, i64 0, i64 0
  %11 = call i32 (i8*, ...) bitcast (i32 (...)* @gets to i32 (i8*, ...)*)(i8* %10)
  %12 = getelementptr inbounds [1 x i8], [1 x i8]* %7, i64 0, i64 0
  %13 = call i32 @atoi(i8* %12) #3
  store i32 %13, i32* %6, align 4
  br label %14

14:                                               ; preds = %0, %102
  %15 = load i32, i32* %2, align 4
  %16 = load i32, i32* %6, align 4
  %17 = icmp eq i32 %15, %16
  br i1 %17, label %18, label %19

18:                                               ; preds = %14
  br label %103

19:                                               ; preds = %14
  store i32 0, i32* %5, align 4
  %20 = getelementptr inbounds [80 x i8], [80 x i8]* %8, i64 0, i64 0
  %21 = call i32 (i8*, ...) bitcast (i32 (...)* @gets to i32 (i8*, ...)*)(i8* %20)
  %22 = getelementptr inbounds [80 x i8], [80 x i8]* %8, i64 0, i64 0
  store i8* %22, i8** %9, align 8
  br label %23

23:                                               ; preds = %69, %19
  %24 = load i8*, i8** %9, align 8
  %25 = load i8, i8* %24, align 1
  %26 = sext i8 %25 to i32
  %27 = icmp ne i32 %26, 0
  br i1 %27, label %28, label %72

28:                                               ; preds = %23
  %29 = load i8*, i8** %9, align 8
  %30 = load i8, i8* %29, align 1
  %31 = sext i8 %30 to i32
  %32 = icmp sge i32 %31, 65
  br i1 %32, label %33, label %38

33:                                               ; preds = %28
  %34 = load i8*, i8** %9, align 8
  %35 = load i8, i8* %34, align 1
  %36 = sext i8 %35 to i32
  %37 = icmp sle i32 %36, 90
  br i1 %37, label %63, label %38

38:                                               ; preds = %33, %28
  %39 = load i8*, i8** %9, align 8
  %40 = load i8, i8* %39, align 1
  %41 = sext i8 %40 to i32
  %42 = icmp sge i32 %41, 97
  br i1 %42, label %43, label %48

43:                                               ; preds = %38
  %44 = load i8*, i8** %9, align 8
  %45 = load i8, i8* %44, align 1
  %46 = sext i8 %45 to i32
  %47 = icmp sle i32 %46, 122
  br i1 %47, label %63, label %48

48:                                               ; preds = %43, %38
  %49 = load i8*, i8** %9, align 8
  %50 = load i8, i8* %49, align 1
  %51 = sext i8 %50 to i32
  %52 = icmp sge i32 %51, 48
  br i1 %52, label %53, label %58

53:                                               ; preds = %48
  %54 = load i8*, i8** %9, align 8
  %55 = load i8, i8* %54, align 1
  %56 = sext i8 %55 to i32
  %57 = icmp sle i32 %56, 57
  br i1 %57, label %63, label %58

58:                                               ; preds = %53, %48
  %59 = load i8*, i8** %9, align 8
  %60 = load i8, i8* %59, align 1
  %61 = sext i8 %60 to i32
  %62 = icmp eq i32 %61, 95
  br i1 %62, label %63, label %65

63:                                               ; preds = %58, %53, %43, %33
  %64 = load i32, i32* %5, align 4
  br label %68

65:                                               ; preds = %58
  %66 = load i32, i32* %5, align 4
  %67 = add nsw i32 %66, 1
  store i32 %67, i32* %5, align 4
  br label %68

68:                                               ; preds = %65, %63
  br label %69

69:                                               ; preds = %68
  %70 = load i8*, i8** %9, align 8
  %71 = getelementptr inbounds i8, i8* %70, i32 1
  store i8* %71, i8** %9, align 8
  br label %23

72:                                               ; preds = %23
  %73 = getelementptr inbounds [80 x i8], [80 x i8]* %8, i64 0, i64 0
  store i8* %73, i8** %9, align 8
  %74 = load i32, i32* %5, align 4
  %75 = icmp ne i32 %74, 0
  br i1 %75, label %76, label %80

76:                                               ; preds = %72
  %77 = load i32, i32* %2, align 4
  %78 = sext i32 %77 to i64
  %79 = getelementptr inbounds [1000 x i32], [1000 x i32]* %4, i64 0, i64 %78
  store i32 0, i32* %79, align 4
  br label %99

80:                                               ; preds = %72
  %81 = load i8*, i8** %9, align 8
  %82 = load i8, i8* %81, align 1
  %83 = sext i8 %82 to i32
  %84 = icmp sge i32 %83, 48
  br i1 %84, label %85, label %94

85:                                               ; preds = %80
  %86 = load i8*, i8** %9, align 8
  %87 = load i8, i8* %86, align 1
  %88 = sext i8 %87 to i32
  %89 = icmp sle i32 %88, 57
  br i1 %89, label %90, label %94

90:                                               ; preds = %85
  %91 = load i32, i32* %2, align 4
  %92 = sext i32 %91 to i64
  %93 = getelementptr inbounds [1000 x i32], [1000 x i32]* %4, i64 0, i64 %92
  store i32 0, i32* %93, align 4
  br label %98

94:                                               ; preds = %85, %80
  %95 = load i32, i32* %2, align 4
  %96 = sext i32 %95 to i64
  %97 = getelementptr inbounds [1000 x i32], [1000 x i32]* %4, i64 0, i64 %96
  store i32 1, i32* %97, align 4
  br label %98

98:                                               ; preds = %94, %90
  br label %99

99:                                               ; preds = %98, %76
  %100 = load i32, i32* %2, align 4
  %101 = add nsw i32 %100, 1
  store i32 %101, i32* %2, align 4
  br label %102

102:                                              ; preds = %99
  br label %14

103:                                              ; preds = %18
  store i32 0, i32* %3, align 4
  br label %104

104:                                              ; preds = %114, %103
  %105 = load i32, i32* %3, align 4
  %106 = load i32, i32* %6, align 4
  %107 = icmp slt i32 %105, %106
  br i1 %107, label %108, label %117

108:                                              ; preds = %104
  %109 = load i32, i32* %3, align 4
  %110 = sext i32 %109 to i64
  %111 = getelementptr inbounds [1000 x i32], [1000 x i32]* %4, i64 0, i64 %110
  %112 = load i32, i32* %111, align 4
  %113 = call i32 (i8*, ...) @printf(i8* getelementptr inbounds ([4 x i8], [4 x i8]* @.str, i64 0, i64 0), i32 %112)
  br label %114

114:                                              ; preds = %108
  %115 = load i32, i32* %3, align 4
  %116 = add nsw i32 %115, 1
  store i32 %116, i32* %3, align 4
  br label %104

117:                                              ; preds = %104
  ret i32 0
}

declare dso_local i32 @gets(...) #1

; Function Attrs: nounwind readonly
declare dso_local i32 @atoi(i8*) #2

declare dso_local i32 @printf(i8*, ...) #1


!llvm.module.flags = !{!0}
!llvm.ident = !{!1}

!0 = !{i32 1, !"wchar_size", i32 4}
!1 = !{!"clang version 10.0.0-4ubuntu1 "}
